(dp0
S'position'
p1
(lp2
F0.37076959013938904
aF-1.2468301057815552
aF2.895834445953369
asS'orientation'
p3
(lp4
cnumpy.core.multiarray
scalar
p5
(cnumpy
dtype
p6
(S'f8'
p7
I0
I1
tp8
Rp9
(I3
S'<'
p10
NNNI-1
I-1
I0
tp11
bS'\xa1&\x1a\x8a\xcb\x91\xe2?'
p12
tp13
Rp14
ag5
(g9
S'\x83\x9d\xeeT,1\xd5?'
p15
tp16
Rp17
ag5
(g9
S'\xf6\xe6F\xd3TS\xdd?'
p18
tp19
Rp20
ag5
(g9
S'O\x8a\x92\xe8N\xc2\xe2\xbf'
p21
tp22
Rp23
as.