(dp0
S'position'
p1
(lp2
F1.8713161945343018
aF4.870328426361084
aF-1.0434291362762451
asS'orientation'
p3
(lp4
cnumpy.core.multiarray
scalar
p5
(cnumpy
dtype
p6
(S'f8'
p7
I0
I1
tp8
Rp9
(I3
S'<'
p10
NNNI-1
I-1
I0
tp11
bS'~\xf0d\xd4\x1e\xe2\xad\xbe'
p12
tp13
Rp14
ag5
(g9
S'\x00R\x96~w\r\xab\xbe'
p15
tp16
Rp17
ag5
(g9
S'\x06\xa6\nm\xda\xec\xef\xbf'
p18
tp19
Rp20
ag5
(g9
S'h\xf5\x02\xc1\x19~\xb1?'
p21
tp22
Rp23
as.